target datalayout = "e-m:e-p270:32:32-p271:32:32-p272:64:64-i64:64-i128:128-f80:128-n8:16:32:64-S128"
target triple = "x86_64-pc-linux-gnu"

%struct.expert_field = type { i32, i32 }

@hf_pfcp_c_tag_cvid = internal global i32 0, align 4
@hf_pfcp_c_tag_dei_flag = internal global i32 0, align 4
@hf_pfcp_c_tag_pcp_value = internal global i32 0, align 4
@ei_pfcp_ie_data_not_decoded = internal global %struct.expert_field zeroinitializer, align 4
@decode_pfcp_c_tag.pfcp_c_tag_cvid_crumbs = internal constant [3 x { i32, i8, [3 x i8] }] [{ i32, i8, [3 x i8] } { i32 0, i8 4, [3 x i8] zeroinitializer }, { i32, i8, [3 x i8] } { i32 8, i8 8, [3 x i8] zeroinitializer }, { i32, i8, [3 x i8] } zeroinitializer], align 16
@decode_pfcp_c_tag.pfcp_c_tag_flags = internal constant [5 x ptr] [ptr @hf_pfcp_spare_b7_b3, ptr @hf_pfcp_c_tag_flags_b2_vid, ptr @hf_pfcp_c_tag_flags_b1_dei, ptr @hf_pfcp_c_tag_flags_b0_pcp, ptr null], align 16

; Function Attrs: null_pointer_is_valid sspstrong uwtable
define internal i32 @decode_pfcp_c_tag(ptr noundef %0, ptr noundef %1, ptr noundef %2, ptr noundef %3, i32 noundef %4) #0 {
  %6 = alloca ptr, align 8
  %7 = alloca ptr, align 8
  %8 = alloca ptr, align 8
  %9 = alloca ptr, align 8
  %10 = alloca i32, align 4
  store ptr %0, ptr %6, align 8
  store ptr %1, ptr %7, align 8
  store ptr %2, ptr %8, align 8
  store ptr %3, ptr %9, align 8
  store i32 %4, ptr %10, align 4
  %11 = load ptr, ptr %8, align 8
  %12 = load ptr, ptr %6, align 8
  %13 = load i32, ptr %10, align 4
  call void @proto_tree_add_bitmask_list(ptr noundef %11, ptr noundef %12, i32 noundef %13, i32 noundef 1, ptr noundef @decode_pfcp_c_tag.pfcp_c_tag_flags, i32 noundef 0)
  %14 = load i32, ptr %10, align 4
  %15 = add i32 %14, 1
  store i32 %15, ptr %10, align 4
  %16 = load ptr, ptr %8, align 8
  %17 = load i32, ptr @hf_pfcp_c_tag_cvid, align 4
  %18 = load ptr, ptr %6, align 8
  %19 = load i32, ptr %10, align 4
  %20 = shl i32 %19, 3
  %21 = call ptr @proto_tree_add_split_bits_item_ret_val(ptr noundef %16, i32 noundef %17, ptr noundef %18, i32 noundef %20, ptr noundef @decode_pfcp_c_tag.pfcp_c_tag_cvid_crumbs, ptr noundef null)
  %22 = load ptr, ptr %8, align 8
  %23 = load i32, ptr @hf_pfcp_c_tag_dei_flag, align 4
  %24 = load ptr, ptr %6, align 8
  %25 = load i32, ptr %10, align 4
  %26 = call ptr @proto_tree_add_item(ptr noundef %22, i32 noundef %23, ptr noundef %24, i32 noundef %25, i32 noundef 1, i32 noundef 0)
  %27 = load ptr, ptr %8, align 8
  %28 = load i32, ptr @hf_pfcp_c_tag_pcp_value, align 4
  %29 = load ptr, ptr %6, align 8
  %30 = load i32, ptr %10, align 4
  %31 = call ptr @proto_tree_add_item(ptr noundef %27, i32 noundef %28, ptr noundef %29, i32 noundef %30, i32 noundef 1, i32 noundef 0)
  %32 = load i32, ptr %10, align 4
  %33 = add i32 %32, 2
  store i32 %33, ptr %10, align 4
  %34 = load i32, ptr %10, align 4
  ret i32 %34
}

; Function Attrs: null_pointer_is_valid sspstrong uwtable
define internal void @dissect_pfcp_c_tag(ptr noundef %0, ptr noundef %1, ptr noundef %2, ptr noundef %3, i16 noundef zeroext %4, i8 noundef zeroext %5, ptr noundef %6) #0 {
  %8 = alloca ptr, align 8
  %9 = alloca ptr, align 8
  %10 = alloca ptr, align 8
  %11 = alloca ptr, align 8
  %12 = alloca i16, align 2
  %13 = alloca i8, align 1
  %14 = alloca ptr, align 8
  %15 = alloca i32, align 4
  store ptr %0, ptr %8, align 8
  store ptr %1, ptr %9, align 8
  store ptr %2, ptr %10, align 8
  store ptr %3, ptr %11, align 8
  store i16 %4, ptr %12, align 2
  store i8 %5, ptr %13, align 1
  store ptr %6, ptr %14, align 8
  call void @llvm.lifetime.start.p0(i64 4, ptr %15) #13
  store i32 0, ptr %15, align 4
  %16 = load ptr, ptr %8, align 8
  %17 = load ptr, ptr %9, align 8
  %18 = load ptr, ptr %10, align 8
  %19 = load ptr, ptr %11, align 8
  %20 = load i32, ptr %15, align 4
  %21 = call i32 @decode_pfcp_c_tag(ptr noundef %16, ptr noundef %17, ptr noundef %18, ptr noundef %19, i32 noundef %20)
  store i32 %21, ptr %15, align 4
  %22 = load i32, ptr %15, align 4
  %23 = load i16, ptr %12, align 2
  %24 = zext i16 %23 to i32
  %25 = icmp slt i32 %22, %24
  br i1 %25, label %26, label %32

26:                                               ; preds = %7
  %27 = load ptr, ptr %10, align 8
  %28 = load ptr, ptr %9, align 8
  %29 = load ptr, ptr %8, align 8
  %30 = load i32, ptr %15, align 4
  %31 = call ptr @proto_tree_add_expert(ptr noundef %27, ptr noundef %28, ptr noundef @ei_pfcp_ie_data_not_decoded, ptr noundef %29, i32 noundef %30, i32 noundef -1)
  br label %32

32:                                               ; preds = %26, %7
  call void @llvm.lifetime.end.p0(i64 4, ptr %15) #13
  ret void
}