; Function Attrs: null_pointer_is_valid sspstrong uwtable
define internal void @dissect_pfcp_c_tag(ptr noundef %0, ptr noundef %1, ptr noundef %2, ptr readnone captures(none) %3, i16 noundef zeroext %4, i8 zeroext %5, ptr readnone captures(none) %6) #0 {
  tail call void @proto_tree_add_bitmask_list(ptr noundef %2, ptr noundef %0, i32 noundef 0, i32 noundef 1, ptr noundef nonnull @decode_pfcp_c_tag.pfcp_c_tag_flags, i32 noundef 0)
  %8 = load i32, ptr @hf_pfcp_c_tag_cvid, align 4
  %9 = tail call ptr @proto_tree_add_split_bits_item_ret_val(ptr noundef %2, i32 noundef %8, ptr noundef %0, i32 noundef 8, ptr noundef nonnull @decode_pfcp_c_tag.pfcp_c_tag_cvid_crumbs, ptr noundef null)
  %10 = load i32, ptr @hf_pfcp_c_tag_dei_flag, align 4
  %11 = tail call ptr @proto_tree_add_item(ptr noundef %2, i32 noundef %10, ptr noundef %0, i32 noundef 1, i32 noundef 1, i32 noundef 0)
  %12 = load i32, ptr @hf_pfcp_c_tag_pcp_value, align 4
  %13 = tail call ptr @proto_tree_add_item(ptr noundef %2, i32 noundef %12, ptr noundef %0, i32 noundef 1, i32 noundef 1, i32 noundef 0)
  %14 = icmp ugt i16 %4, 3
  br i1 %14, label %15, label %17

15:                                               ; preds = %7
  %16 = tail call ptr @proto_tree_add_expert(ptr noundef %2, ptr noundef %1, ptr noundef nonnull @ei_pfcp_ie_data_not_decoded, ptr noundef %0, i32 noundef 3, i32 noundef -1)
  br label %17

17:                                               ; preds = %15, %7
  ret void
}